; Function Attrs: mustprogress nofree norecurse nosync nounwind willreturn memory(argmem: write) uwtable
define hidden void @_ZN10macro_util16macro_candidatesC2ER11ast_manager(ptr noundef nonnull writeonly align 8 captures(none) dereferenceable(64) initializes((0, 64)) %0, ptr noundef nonnull align 8 dereferenceable(976) %1) unnamed_addr #10 align 2 personality ptr @__gxx_personality_v0 {
  store ptr null, ptr %0, align 8, !tbaa !216
  %3 = getelementptr inbounds nuw i8, ptr %0, i64 8
  %4 = ptrtoint ptr %1 to i64
  store i64 %4, ptr %3, align 8, !tbaa !3
  %5 = getelementptr inbounds nuw i8, ptr %0, i64 16
  store ptr null, ptr %5, align 8, !tbaa !151
  %6 = getelementptr inbounds nuw i8, ptr %0, i64 24
  store i64 %4, ptr %6, align 8, !tbaa !3
  %7 = getelementptr inbounds nuw i8, ptr %0, i64 32
  tail call void @llvm.memset.p0.i64(ptr noundef nonnull align 8 dereferenceable(32) %7, i8 0, i64 32, i1 false)
  ret void
}